; Function Attrs: nounwind uwtable
define internal fastcc noalias noundef ptr @read_string_literal(ptr noundef %start, ptr noundef %quote) unnamed_addr #4 {
entry:
  %p = alloca ptr, align 8
  %add.ptr.ptr = getelementptr inbounds i8, ptr %quote, i64 1
  br label %for.cond.i

for.cond.i:                                       ; preds = %for.inc.i, %entry
  %p.addr.0.i.idx = phi i64 [ 1, %entry ], [ %p.addr.1.i.add, %for.inc.i ]
  %p.addr.0.i.ptr = getelementptr inbounds i8, ptr %quote, i64 %p.addr.0.i.idx
  %0 = load i8, ptr %p.addr.0.i.ptr, align 1
  switch i8 %0, label %for.inc.i [
    i8 34, label %string_literal_end.exit
    i8 10, label %if.then.i
    i8 0, label %if.then.i
    i8 92, label %if.then11.i
  ]

if.then.i:                                        ; preds = %for.cond.i, %for.cond.i
  tail call void (ptr, ptr, ...) @error_at(ptr noundef nonnull %add.ptr.ptr, ptr noundef nonnull @.str.82) #26
  unreachable

if.then11.i:                                      ; preds = %for.cond.i
  %p.addr.0.i.add = add nsw i64 %p.addr.0.i.idx, 1
  br label %for.inc.i

for.inc.i:                                        ; preds = %if.then11.i, %for.cond.i
  %p.addr.1.i.idx = phi i64 [ %p.addr.0.i.add, %if.then11.i ], [ %p.addr.0.i.idx, %for.cond.i ]
  %p.addr.1.i.add = add nsw i64 %p.addr.1.i.idx, 1
  br label %for.cond.i, !llvm.loop !13

string_literal_end.exit:                          ; preds = %for.cond.i
  %p.addr.0.i.ptr.le = getelementptr inbounds i8, ptr %quote, i64 %p.addr.0.i.idx
  %call1 = tail call noalias ptr @calloc(i64 noundef 1, i64 noundef %p.addr.0.i.idx) #29
  store ptr %add.ptr.ptr, ptr %p, align 8
  %cmp12 = icmp sgt i64 %p.addr.0.i.idx, 1
  br i1 %cmp12, label %for.body, label %for.end

for.body:                                         ; preds = %string_literal_end.exit, %if.end
  %indvars.iv = phi i64 [ %indvars.iv.next, %if.end ], [ 0, %string_literal_end.exit ]
  %1 = phi ptr [ %3, %if.end ], [ %add.ptr.ptr, %string_literal_end.exit ]
  %2 = load i8, ptr %1, align 1
  %cmp3 = icmp eq i8 %2, 92
  %add.ptr5 = getelementptr inbounds i8, ptr %1, i64 1
  br i1 %cmp3, label %if.then, label %if.else

if.then:                                          ; preds = %for.body
  %call6 = call fastcc i32 @read_escaped_char(ptr noundef nonnull %p, ptr noundef nonnull %add.ptr5)
  %conv7 = trunc i32 %call6 to i8
  %.pre = load ptr, ptr %p, align 8
  br label %if.end

if.else:                                          ; preds = %for.body
  store ptr %add.ptr5, ptr %p, align 8
  br label %if.end

if.end:                                           ; preds = %if.else, %if.then
  %3 = phi ptr [ %.pre, %if.then ], [ %add.ptr5, %if.else ]
  %.sink = phi i8 [ %conv7, %if.then ], [ %2, %if.else ]
  %4 = getelementptr inbounds i8, ptr %call1, i64 %indvars.iv
  store i8 %.sink, ptr %4, align 1
  %indvars.iv.next = add nuw i64 %indvars.iv, 1
  %cmp = icmp ult ptr %3, %p.addr.0.i.ptr.le
  br i1 %cmp, label %for.body, label %for.end.loopexit, !llvm.loop !19

for.end.loopexit:                                 ; preds = %if.end
  %5 = trunc i64 %indvars.iv.next to i32
  %6 = add nuw nsw i32 %5, 1
  br label %for.end

for.end:                                          ; preds = %for.end.loopexit, %string_literal_end.exit
  %len.0.lcssa = phi i32 [ 1, %string_literal_end.exit ], [ %6, %for.end.loopexit ]
  %add.ptr11 = getelementptr inbounds i8, ptr %p.addr.0.i.ptr.le, i64 1
  %call.i = tail call noalias dereferenceable_or_null(128) ptr @calloc(i64 noundef 1, i64 noundef 128) #29
  store i32 3, ptr %call.i, align 16
  %loc.i = getelementptr inbounds %struct.Token, ptr %call.i, i64 0, i32 4
  store ptr %start, ptr %loc.i, align 16
  %sub.ptr.lhs.cast.i = ptrtoint ptr %add.ptr11 to i64
  %sub.ptr.rhs.cast.i = ptrtoint ptr %start to i64
  %sub.ptr.sub.i = sub i64 %sub.ptr.lhs.cast.i, %sub.ptr.rhs.cast.i
  %conv.i = trunc i64 %sub.ptr.sub.i to i32
  %len.i = getelementptr inbounds %struct.Token, ptr %call.i, i64 0, i32 5
  store i32 %conv.i, ptr %len.i, align 8
  %7 = load ptr, ptr @current_file, align 8
  %file.i = getelementptr inbounds %struct.Token, ptr %call.i, i64 0, i32 8
  store ptr %7, ptr %file.i, align 16
  %display_name.i = getelementptr inbounds %struct.File, ptr %7, i64 0, i32 3
  %8 = load ptr, ptr %display_name.i, align 8
  %filename.i = getelementptr inbounds %struct.Token, ptr %call.i, i64 0, i32 9
  store ptr %8, ptr %filename.i, align 8
  %.b10.i = load i1, ptr @at_bol, align 1
  %at_bol.i = getelementptr inbounds %struct.Token, ptr %call.i, i64 0, i32 12
  %frombool.i = zext i1 %.b10.i to i8
  store i8 %frombool.i, ptr %at_bol.i, align 8
  %.b911.i = load i1, ptr @has_space, align 1
  %has_space.i = getelementptr inbounds %struct.Token, ptr %call.i, i64 0, i32 13
  %frombool3.i = zext i1 %.b911.i to i8
  store i8 %frombool3.i, ptr %has_space.i, align 1
  store i1 false, ptr @has_space, align 1
  store i1 false, ptr @at_bol, align 1
  %9 = load ptr, ptr @ty_char, align 8
  %call13 = tail call ptr @array_of(ptr noundef %9, i32 noundef %len.0.lcssa) #25
  %ty = getelementptr inbounds %struct.Token, ptr %call.i, i64 0, i32 6
  store ptr %call13, ptr %ty, align 16
  %str = getelementptr inbounds %struct.Token, ptr %call.i, i64 0, i32 7
  store ptr %call1, ptr %str, align 8
  ret ptr %call.i
}